; Function Attrs: mustprogress uwtable
define noundef zeroext i1 @_ZN5boost4json6detail10write_nullERNS1_6writerERNS1_6streamE(ptr noundef nonnull align 8 dereferenceable(108) %0, ptr nocapture noundef nonnull align 8 dereferenceable(16) %1) local_unnamed_addr #5 {
  %3 = alloca i8, align 1
  %4 = getelementptr inbounds nuw i8, ptr %1, i64 8
  %5 = load ptr, ptr %4, align 8, !tbaa !344
  %6 = load ptr, ptr %1, align 8, !tbaa !342
  %7 = ptrtoint ptr %5 to i64
  %8 = ptrtoint ptr %6 to i64
  %9 = sub i64 %7, %8
  %10 = icmp ugt i64 %9, 3
  br i1 %10, label %11, label %14, !prof !244

11:                                               ; preds = %2
  store i32 1819047278, ptr %6, align 1
  %12 = load ptr, ptr %1, align 8, !tbaa !342
  %13 = getelementptr inbounds nuw i8, ptr %12, i64 4
  store ptr %13, ptr %1, align 8, !tbaa !342
  br label %_ZN5boost4json6detail13write_literalILNS1_8literalsE0EEEbRNS1_6writerERNS1_6streamE.exit

14:                                               ; preds = %2
  tail call void @llvm.memcpy.p0.p0.i64(ptr align 1 %6, ptr nonnull align 1 @.str.55, i64 %9, i1 false)
  %15 = load ptr, ptr %1, align 8, !tbaa !342
  %16 = getelementptr inbounds nuw i8, ptr %15, i64 %9
  store ptr %16, ptr %1, align 8, !tbaa !342
  %17 = getelementptr inbounds nuw i8, ptr @.str.55, i64 %9
  %18 = getelementptr inbounds nuw i8, ptr %0, i64 56
  store ptr %17, ptr %18, align 8, !tbaa !42
  %.sroa.4.0..sroa_idx.i = getelementptr inbounds i8, ptr %0, i64 64
  store ptr getelementptr inbounds nuw (i8, ptr @.str.55, i64 4), ptr %.sroa.4.0..sroa_idx.i, align 8, !tbaa !42
  call void @llvm.lifetime.start.p0(i64 1, ptr nonnull %3)
  store i8 9, ptr %3, align 1, !tbaa !353
  call void @_ZN5boost4json6detail5stack4pushINS1_6writer5stateEEEvRKT_St17integral_constantIbLb1EE(ptr noundef nonnull align 8 dereferenceable(108) %0, ptr noundef nonnull align 1 dereferenceable(1) %3)
  call void @llvm.lifetime.end.p0(i64 1, ptr nonnull %3)
  br label %_ZN5boost4json6detail13write_literalILNS1_8literalsE0EEEbRNS1_6writerERNS1_6streamE.exit

_ZN5boost4json6detail13write_literalILNS1_8literalsE0EEEbRNS1_6writerERNS1_6streamE.exit: ; preds = %11, %14
  ret i1 %10
}